; Function Attrs: nounwind uwtable
define internal fastcc range(i32 -1, 1) i32 @_unpack_job_suspend_msg(ptr noundef writeonly captures(none) initializes((0, 8)) %0, i16 noundef zeroext %1, ptr noundef %2) unnamed_addr #0 {
  %4 = tail call ptr @slurm_xcalloc(i64 noundef 1, i64 noundef 40, i1 noundef zeroext true, i1 noundef zeroext false, ptr noundef nonnull @.str, i32 noundef 895, ptr noundef nonnull @__func__._unpack_job_suspend_msg) #5
  store ptr %4, ptr %0, align 8
  %5 = icmp ugt i16 %1, 10239
  br i1 %5, label %6, label %24

6:                                                ; preds = %3
  %7 = tail call i32 @unpack32(ptr noundef %4, ptr noundef %2) #5
  %.not = icmp eq i32 %7, 0
  br i1 %.not, label %8, label %23

8:                                                ; preds = %6
  %9 = getelementptr inbounds nuw i8, ptr %4, i64 8
  %10 = tail call i32 @unpack64(ptr noundef nonnull %9, ptr noundef %2) #5
  %.not17 = icmp eq i32 %10, 0
  br i1 %.not17, label %11, label %23

11:                                               ; preds = %8
  %12 = getelementptr inbounds nuw i8, ptr %4, i64 16
  %13 = tail call i32 @unpack32(ptr noundef nonnull %12, ptr noundef %2) #5
  %.not18 = icmp eq i32 %13, 0
  br i1 %.not18, label %14, label %23

14:                                               ; preds = %11
  %15 = getelementptr inbounds nuw i8, ptr %4, i64 20
  %16 = tail call i32 @unpack32(ptr noundef nonnull %15, ptr noundef %2) #5
  %.not19 = icmp eq i32 %16, 0
  br i1 %.not19, label %17, label %23

17:                                               ; preds = %14
  %18 = getelementptr inbounds nuw i8, ptr %4, i64 24
  %19 = tail call i32 @unpack_time(ptr noundef nonnull %18, ptr noundef %2) #5
  %.not20 = icmp eq i32 %19, 0
  br i1 %.not20, label %20, label %23

20:                                               ; preds = %17
  %21 = getelementptr inbounds nuw i8, ptr %4, i64 32
  %22 = tail call i32 @unpack_time(ptr noundef nonnull %21, ptr noundef %2) #5
  %.not21 = icmp eq i32 %22, 0
  br i1 %.not21, label %24, label %23

23:                                               ; preds = %20, %17, %14, %11, %8, %6
  tail call void @slurmdbd_free_job_suspend_msg(ptr noundef %4) #5
  store ptr null, ptr %0, align 8
  br label %24

24:                                               ; preds = %3, %20, %23
  %.0 = phi i32 [ -1, %23 ], [ 0, %20 ], [ 0, %3 ]
  ret i32 %.0
}